target datalayout = "e-m:e-p270:32:32-p271:32:32-p272:64:64-i64:64-i128:128-f80:128-n8:16:32:64-S128"
target triple = "x86_64-pc-linux-gnu"

%struct._value_string = type { i32, ptr }
%struct._x11_conv_data = type { ptr, ptr, [257 x %struct._value_string], [257 x %struct._value_string], [129 x %struct._value_string], ptr, ptr, i32, i32, i32, i32, i8, [256 x ptr], i32, i32, [8 x ptr], i32, %union.anon }
%union.anon = type { %struct.anon.0 }
%struct.anon.0 = type { i32 }

@hf_x11_reply = internal global i32 0, align 4
@hf_x11_reply_sequencenumber = internal global i32 0, align 4
@hf_x11_replylength = internal global i32 0, align 4
@hf_x11_undecoded = internal global i32 0, align 4
@.str.14889 = private unnamed_addr constant [20 x i8] c"<Unknown opcode %d>\00", align 1
@.str.14892 = private unnamed_addr constant [24 x i8] c"sequencenumber: %d (%s)\00", align 1

; Function Attrs: null_pointer_is_valid sspstrong uwtable
define internal void @tryExtensionReply(i32 noundef %0, ptr noundef %1, ptr noundef %2, ptr noundef %3, ptr noundef %4, ptr noundef %5, i32 noundef %6) #1 {
  %8 = alloca i32, align 4
  %9 = alloca ptr, align 8
  %10 = alloca ptr, align 8
  %11 = alloca ptr, align 8
  %12 = alloca ptr, align 8
  %13 = alloca ptr, align 8
  %14 = alloca i32, align 4
  %15 = alloca ptr, align 8
  %16 = alloca i16, align 2
  store i32 %0, ptr %8, align 4
  store ptr %1, ptr %9, align 8
  store ptr %2, ptr %10, align 8
  store ptr %3, ptr %11, align 8
  store ptr %4, ptr %12, align 8
  store ptr %5, ptr %13, align 8
  store i32 %6, ptr %14, align 4
  call void @llvm.lifetime.start.p0(i64 8, ptr %15) #11
  %17 = load ptr, ptr %13, align 8
  %18 = getelementptr inbounds nuw %struct._x11_conv_data, ptr %17, i32 0, i32 6
  %19 = load ptr, ptr %18, align 8
  %20 = load i32, ptr %8, align 4
  %21 = sext i32 %20 to i64
  %22 = inttoptr i64 %21 to ptr
  %23 = call ptr @wmem_map_lookup(ptr noundef %19, ptr noundef %22)
  store ptr %23, ptr %15, align 8
  %24 = load ptr, ptr %15, align 8
  %25 = icmp ne ptr %24, null
  br i1 %25, label %26, label %33

26:                                               ; preds = %7
  %27 = load ptr, ptr %15, align 8
  %28 = load ptr, ptr %9, align 8
  %29 = load ptr, ptr %10, align 8
  %30 = load ptr, ptr %11, align 8
  %31 = load ptr, ptr %12, align 8
  %32 = load i32, ptr %14, align 4
  call void %27(ptr noundef %28, ptr noundef %29, ptr noundef %30, ptr noundef %31, i32 noundef %32)
  br label %102

33:                                               ; preds = %7
  br label %34

34:                                               ; preds = %33
  %35 = load ptr, ptr %9, align 8
  %36 = load ptr, ptr %11, align 8
  %37 = load ptr, ptr %12, align 8
  %38 = load i32, ptr @hf_x11_reply, align 4
  %39 = load i32, ptr %14, align 4
  %40 = call i32 @field8(ptr noundef %35, ptr noundef %36, ptr noundef %37, i32 noundef %38, i32 noundef %39)
  %41 = load ptr, ptr %12, align 8
  %42 = load i32, ptr @hf_x11_undecoded, align 4
  %43 = load ptr, ptr %9, align 8
  %44 = load ptr, ptr %11, align 8
  %45 = load i32, ptr %44, align 4
  %46 = call ptr @proto_tree_add_item(ptr noundef %41, i32 noundef %42, ptr noundef %43, i32 noundef %45, i32 noundef 1, i32 noundef 0)
  %47 = load ptr, ptr %11, align 8
  %48 = load i32, ptr %47, align 4
  %49 = add i32 %48, 1
  store i32 %49, ptr %47, align 4
  br label %50

50:                                               ; preds = %34
  call void @llvm.lifetime.start.p0(i64 2, ptr %16) #11
  %51 = load ptr, ptr %9, align 8
  %52 = load ptr, ptr %11, align 8
  %53 = load i32, ptr %52, align 4
  %54 = load i32, ptr %14, align 4
  %55 = call zeroext i16 @tvb_get_uint16(ptr noundef %51, i32 noundef %53, i32 noundef %54)
  store i16 %55, ptr %16, align 2
  %56 = load ptr, ptr %12, align 8
  %57 = load i32, ptr @hf_x11_reply_sequencenumber, align 4
  %58 = load ptr, ptr %9, align 8
  %59 = load ptr, ptr %11, align 8
  %60 = load i32, ptr %59, align 4
  %61 = load i16, ptr %16, align 2
  %62 = zext i16 %61 to i32
  %63 = load i16, ptr %16, align 2
  %64 = zext i16 %63 to i32
  %65 = load i32, ptr %8, align 4
  %66 = and i32 %65, 255
  %67 = load ptr, ptr %13, align 8
  %68 = getelementptr inbounds nuw %struct._x11_conv_data, ptr %67, i32 0, i32 2
  %69 = getelementptr inbounds [257 x %struct._value_string], ptr %68, i64 0, i64 0
  %70 = call ptr @val_to_str(i32 noundef %66, ptr noundef %69, ptr noundef @.str.14889)
  %71 = call ptr (ptr, i32, ptr, i32, i32, i32, ptr, ...) @proto_tree_add_uint_format(ptr noundef %56, i32 noundef %57, ptr noundef %58, i32 noundef %60, i32 noundef 2, i32 noundef %62, ptr noundef @.str.14892, i32 noundef %64, ptr noundef %70)
  %72 = load ptr, ptr %11, align 8
  %73 = load i32, ptr %72, align 4
  %74 = add i32 %73, 2
  store i32 %74, ptr %72, align 4
  call void @llvm.lifetime.end.p0(i64 2, ptr %16) #11
  br label %75

75:                                               ; preds = %50
  br label %76

76:                                               ; preds = %75
  %77 = load ptr, ptr %9, align 8
  %78 = load ptr, ptr %11, align 8
  %79 = load ptr, ptr %12, align 8
  %80 = load i32, ptr @hf_x11_replylength, align 4
  %81 = load i32, ptr %14, align 4
  %82 = call i32 @field32(ptr noundef %77, ptr noundef %78, ptr noundef %79, i32 noundef %80, i32 noundef %81)
  %83 = load ptr, ptr %12, align 8
  %84 = load i32, ptr @hf_x11_undecoded, align 4
  %85 = load ptr, ptr %9, align 8
  %86 = load ptr, ptr %11, align 8
  %87 = load i32, ptr %86, align 4
  %88 = load ptr, ptr %9, align 8
  %89 = load ptr, ptr %11, align 8
  %90 = load i32, ptr %89, align 4
  %91 = call i32 @tvb_reported_length_remaining(ptr noundef %88, i32 noundef %90)
  %92 = call ptr @proto_tree_add_item(ptr noundef %83, i32 noundef %84, ptr noundef %85, i32 noundef %87, i32 noundef %91, i32 noundef 0)
  %93 = load ptr, ptr %9, align 8
  %94 = load ptr, ptr %11, align 8
  %95 = load i32, ptr %94, align 4
  %96 = call i32 @tvb_reported_length_remaining(ptr noundef %93, i32 noundef %95)
  %97 = load ptr, ptr %11, align 8
  %98 = load i32, ptr %97, align 4
  %99 = add i32 %98, %96
  store i32 %99, ptr %97, align 4
  br label %100

100:                                              ; preds = %76
  br label %101

101:                                              ; preds = %100
  br label %102

102:                                              ; preds = %101, %26
  call void @llvm.lifetime.end.p0(i64 8, ptr %15) #11
  ret void
}