; Function Attrs: null_pointer_is_valid sspstrong uwtable
define internal fastcc void @tryExtensionReply(i32 noundef %0, ptr noundef %1, ptr noundef %2, ptr noundef %3, ptr noundef %4, ptr noundef %5, i32 noundef %6) unnamed_addr #1 {
  %8 = getelementptr inbounds nuw i8, ptr %5, i64 10312
  %9 = load ptr, ptr %8, align 8
  %10 = sext i32 %0 to i64
  %11 = inttoptr i64 %10 to ptr
  %12 = tail call ptr @wmem_map_lookup(ptr noundef %9, ptr noundef %11)
  %.not = icmp eq ptr %12, null
  br i1 %.not, label %14, label %13

13:                                               ; preds = %7
  tail call void %12(ptr noundef %1, ptr noundef %2, ptr noundef %3, ptr noundef %4, i32 noundef %6)
  br label %42

14:                                               ; preds = %7
  %15 = load i32, ptr @hf_x11_reply, align 4
  %16 = tail call fastcc i32 @field8(ptr noundef %1, ptr noundef %3, ptr noundef %4, i32 noundef %15, i32 noundef %6)
  %17 = load i32, ptr @hf_x11_undecoded, align 4
  %18 = load i32, ptr %3, align 4
  %19 = tail call ptr @proto_tree_add_item(ptr noundef %4, i32 noundef %17, ptr noundef %1, i32 noundef %18, i32 noundef 1, i32 noundef 0)
  %20 = load i32, ptr %3, align 4
  %21 = add i32 %20, 1
  store i32 %21, ptr %3, align 4
  %22 = tail call zeroext i16 @tvb_get_uint16(ptr noundef %1, i32 noundef %21, i32 noundef %6)
  %23 = load i32, ptr @hf_x11_reply_sequencenumber, align 4
  %24 = load i32, ptr %3, align 4
  %25 = zext i16 %22 to i32
  %26 = and i32 %0, 255
  %27 = getelementptr inbounds nuw i8, ptr %5, i64 16
  %28 = tail call ptr @val_to_str(i32 noundef %26, ptr noundef nonnull %27, ptr noundef nonnull @.str.14889)
  %29 = tail call ptr (ptr, i32, ptr, i32, i32, i32, ptr, ...) @proto_tree_add_uint_format(ptr noundef %4, i32 noundef %23, ptr noundef %1, i32 noundef %24, i32 noundef 2, i32 noundef %25, ptr noundef nonnull @.str.14892, i32 noundef %25, ptr noundef %28)
  %30 = load i32, ptr %3, align 4
  %31 = add i32 %30, 2
  store i32 %31, ptr %3, align 4
  %32 = load i32, ptr @hf_x11_replylength, align 4
  %33 = tail call fastcc i32 @field32(ptr noundef %1, ptr noundef %3, ptr noundef %4, i32 noundef %32, i32 noundef %6)
  %34 = load i32, ptr @hf_x11_undecoded, align 4
  %35 = load i32, ptr %3, align 4
  %36 = tail call i32 @tvb_reported_length_remaining(ptr noundef %1, i32 noundef %35)
  %37 = tail call ptr @proto_tree_add_item(ptr noundef %4, i32 noundef %34, ptr noundef %1, i32 noundef %35, i32 noundef %36, i32 noundef 0)
  %38 = load i32, ptr %3, align 4
  %39 = tail call i32 @tvb_reported_length_remaining(ptr noundef %1, i32 noundef %38)
  %40 = load i32, ptr %3, align 4
  %41 = add i32 %40, %39
  store i32 %41, ptr %3, align 4
  br label %42

42:                                               ; preds = %14, %13
  ret void
}